; ModuleID = '7/1147.c'
source_filename = "7/1147.c"
target datalayout = "e-m:e-p270:32:32-p271:32:32-p272:64:64-i64:64-f80:128-n8:16:32:64-S128"
target triple = "x86_64-pc-linux-gnu"

@.str = private unnamed_addr constant [7 x i8] c"%s%s%s\00", align 1
@.str.1 = private unnamed_addr constant [3 x i8] c"%s\00", align 1

; Function Attrs: noinline nounwind uwtable
define dso_local void @main() #0 {
  %1 = alloca [512 x i8], align 16
  %2 = alloca [257 x i8], align 16
  %3 = alloca [257 x i8], align 16
  %4 = alloca i32, align 4
  %5 = alloca i32, align 4
  %6 = alloca i32, align 4
  %7 = alloca i32, align 4
  %8 = alloca i32, align 4
  %9 = alloca i32, align 4
  %10 = getelementptr inbounds [512 x i8], [512 x i8]* %1, i64 0, i64 0
  %11 = getelementptr inbounds [257 x i8], [257 x i8]* %2, i64 0, i64 0
  %12 = getelementptr inbounds [257 x i8], [257 x i8]* %3, i64 0, i64 0
  %13 = call i32 (i8*, ...) @__isoc99_scanf(i8* getelementptr inbounds ([7 x i8], [7 x i8]* @.str, i64 0, i64 0), i8* %10, i8* %11, i8* %12)
  %14 = getelementptr inbounds [512 x i8], [512 x i8]* %1, i64 0, i64 0
  %15 = call i64 @strlen(i8* %14) #3
  %16 = trunc i64 %15 to i32
  store i32 %16, i32* %4, align 4
  %17 = getelementptr inbounds [257 x i8], [257 x i8]* %2, i64 0, i64 0
  %18 = call i64 @strlen(i8* %17) #3
  %19 = trunc i64 %18 to i32
  store i32 %19, i32* %5, align 4
  store i32 0, i32* %6, align 4
  br label %20

20:                                               ; preds = %55, %0
  %21 = load i32, i32* %6, align 4
  %22 = load i32, i32* %4, align 4
  %23 = load i32, i32* %5, align 4
  %24 = sub nsw i32 %22, %23
  %25 = icmp sle i32 %21, %24
  br i1 %25, label %26, label %58

26:                                               ; preds = %20
  store i32 0, i32* %9, align 4
  store i32 0, i32* %7, align 4
  br label %27

27:                                               ; preds = %47, %26
  %28 = load i32, i32* %7, align 4
  %29 = load i32, i32* %5, align 4
  %30 = icmp slt i32 %28, %29
  br i1 %30, label %31, label %50

31:                                               ; preds = %27
  %32 = load i32, i32* %7, align 4
  %33 = sext i32 %32 to i64
  %34 = getelementptr inbounds [257 x i8], [257 x i8]* %2, i64 0, i64 %33
  %35 = load i8, i8* %34, align 1
  %36 = sext i8 %35 to i32
  %37 = load i32, i32* %6, align 4
  %38 = load i32, i32* %7, align 4
  %39 = add nsw i32 %37, %38
  %40 = sext i32 %39 to i64
  %41 = getelementptr inbounds [512 x i8], [512 x i8]* %1, i64 0, i64 %40
  %42 = load i8, i8* %41, align 1
  %43 = sext i8 %42 to i32
  %44 = icmp ne i32 %36, %43
  br i1 %44, label %45, label %46

45:                                               ; preds = %31
  store i32 1, i32* %9, align 4
  br label %46

46:                                               ; preds = %45, %31
  br label %47

47:                                               ; preds = %46
  %48 = load i32, i32* %7, align 4
  %49 = add nsw i32 %48, 1
  store i32 %49, i32* %7, align 4
  br label %27

50:                                               ; preds = %27
  %51 = load i32, i32* %9, align 4
  %52 = icmp eq i32 %51, 0
  br i1 %52, label %53, label %54

53:                                               ; preds = %50
  br label %58

54:                                               ; preds = %50
  br label %55

55:                                               ; preds = %54
  %56 = load i32, i32* %6, align 4
  %57 = add nsw i32 %56, 1
  store i32 %57, i32* %6, align 4
  br label %20

58:                                               ; preds = %53, %20
  %59 = load i32, i32* %9, align 4
  %60 = icmp eq i32 %59, 0
  br i1 %60, label %61, label %86

61:                                               ; preds = %58
  %62 = load i32, i32* %6, align 4
  store i32 %62, i32* %8, align 4
  br label %63

63:                                               ; preds = %80, %61
  %64 = load i32, i32* %8, align 4
  %65 = load i32, i32* %6, align 4
  %66 = load i32, i32* %5, align 4
  %67 = add nsw i32 %65, %66
  %68 = sub nsw i32 %67, 1
  %69 = icmp sle i32 %64, %68
  br i1 %69, label %70, label %83

70:                                               ; preds = %63
  %71 = load i32, i32* %8, align 4
  %72 = load i32, i32* %6, align 4
  %73 = sub nsw i32 %71, %72
  %74 = sext i32 %73 to i64
  %75 = getelementptr inbounds [257 x i8], [257 x i8]* %3, i64 0, i64 %74
  %76 = load i8, i8* %75, align 1
  %77 = load i32, i32* %8, align 4
  %78 = sext i32 %77 to i64
  %79 = getelementptr inbounds [512 x i8], [512 x i8]* %1, i64 0, i64 %78
  store i8 %76, i8* %79, align 1
  br label %80

80:                                               ; preds = %70
  %81 = load i32, i32* %8, align 4
  %82 = add nsw i32 %81, 1
  store i32 %82, i32* %8, align 4
  br label %63

83:                                               ; preds = %63
  %84 = getelementptr inbounds [512 x i8], [512 x i8]* %1, i64 0, i64 0
  %85 = call i32 (i8*, ...) @printf(i8* getelementptr inbounds ([3 x i8], [3 x i8]* @.str.1, i64 0, i64 0), i8* %84)
  br label %89

86:                                               ; preds = %58
  %87 = getelementptr inbounds [512 x i8], [512 x i8]* %1, i64 0, i64 0
  %88 = call i32 (i8*, ...) @printf(i8* getelementptr inbounds ([3 x i8], [3 x i8]* @.str.1, i64 0, i64 0), i8* %87)
  br label %89

89:                                               ; preds = %86, %83
  ret void
}

declare dso_local i32 @__isoc99_scanf(i8*, ...) #1

; Function Attrs: nounwind readonly
declare dso_local i64 @strlen(i8*) #2

declare dso_local i32 @printf(i8*, ...) #1


!llvm.module.flags = !{!0}
!llvm.ident = !{!1}

!0 = !{i32 1, !"wchar_size", i32 4}
!1 = !{!"clang version 10.0.0-4ubuntu1 "}
